target datalayout = "e-m:e-p270:32:32-p271:32:32-p272:64:64-i64:64-i128:128-f80:128-n8:16:32:64-S128"
target triple = "x86_64-pc-linux-gnu"

@globalUtilOptind = external global i32, align 4
@.str.13 = private unnamed_addr constant [10 x i8] c"open_path\00", align 1
@.str.14 = private unnamed_addr constant [2 x i8] c"r\00", align 1
@.str.15 = private unnamed_addr constant [30 x i8] c"Cannot open input file \22%s\22. \00", align 1
@.str.20 = private unnamed_addr constant [19 x i8] c"Did you mean \22%s\22?\00", align 1
@.str.21 = private unnamed_addr constant [2 x i8] c"\0A\00", align 1
@.str.56 = private unnamed_addr constant [2 x i8] c"h\00", align 1
@.str.57 = private unnamed_addr constant [37 x i8] c"There is no Genlib library entered.\0A\00", align 1
@.str.58 = private unnamed_addr constant [9 x i8] c".profile\00", align 1
@.str.59 = private unnamed_addr constant [33 x i8] c"usage: read_profile [-h] <file>\0A\00", align 1
@.str.60 = private unnamed_addr constant [52 x i8] c"\09          read a gate profile from a profile file\0A\00", align 1
@.str.61 = private unnamed_addr constant [34 x i8] c"\09-h      : enable verbose output\0A\00", align 1
@.str.62 = private unnamed_addr constant [42 x i8] c"\09<file>  : file name to read the profile\0A\00", align 1

; Function Attrs: nounwind uwtable
define internal i32 @Mio_CommandReadProfile(ptr noundef %0, i32 noundef %1, ptr noundef %2) #0 {
  %4 = alloca i32, align 4
  %5 = alloca ptr, align 8
  %6 = alloca i32, align 4
  %7 = alloca ptr, align 8
  %8 = alloca ptr, align 8
  %9 = alloca ptr, align 8
  %10 = alloca ptr, align 8
  %11 = alloca ptr, align 8
  %12 = alloca ptr, align 8
  %13 = alloca i32, align 4
  store ptr %0, ptr %5, align 8
  store i32 %1, ptr %6, align 4
  store ptr %2, ptr %7, align 8
  %14 = load ptr, ptr %5, align 8
  %15 = call ptr @Abc_FrameReadOut(ptr noundef %14)
  store ptr %15, ptr %9, align 8
  %16 = load ptr, ptr %5, align 8
  %17 = call ptr @Abc_FrameReadErr(ptr noundef %16)
  store ptr %17, ptr %10, align 8
  call void (...) @Extra_UtilGetoptReset()
  br label %18

18:                                               ; preds = %3
  %19 = load i32, ptr %6, align 4
  %20 = load ptr, ptr %7, align 8
  %21 = call i32 @Extra_UtilGetopt(i32 noundef %19, ptr noundef %20, ptr noundef @.str.56)
  store i32 %21, ptr %13, align 4
  %22 = icmp ne i32 %21, -1
  br i1 %22, label %23, label %27

23:                                               ; preds = %18
  %24 = load i32, ptr %13, align 4
  switch i32 %24, label %26 [
    i32 104, label %25
  ]

25:                                               ; preds = %23
  br label %68

26:                                               ; preds = %23
  br label %68

27:                                               ; preds = %18
  %28 = load i32, ptr %6, align 4
  %29 = load i32, ptr @globalUtilOptind, align 4
  %30 = add nsw i32 %29, 1
  %31 = icmp ne i32 %28, %30
  br i1 %31, label %32, label %33

32:                                               ; preds = %27
  br label %68

33:                                               ; preds = %27
  %34 = call ptr (...) @Abc_FrameReadLibGen()
  store ptr %34, ptr %11, align 8
  %35 = load ptr, ptr %11, align 8
  %36 = icmp eq ptr %35, null
  br i1 %36, label %37, label %40

37:                                               ; preds = %33
  %38 = load ptr, ptr %10, align 8
  %39 = call i32 (ptr, ptr, ...) @fprintf(ptr noundef %38, ptr noundef @.str.57) #6
  store i32 1, ptr %4, align 4
  br label %77

40:                                               ; preds = %33
  %41 = load ptr, ptr %7, align 8
  %42 = load i32, ptr @globalUtilOptind, align 4
  %43 = sext i32 %42 to i64
  %44 = getelementptr inbounds ptr, ptr %41, i64 %43
  %45 = load ptr, ptr %44, align 8
  store ptr %45, ptr %12, align 8
  %46 = load ptr, ptr %12, align 8
  %47 = call ptr @Io_FileOpen(ptr noundef %46, ptr noundef @.str.13, ptr noundef @.str.14, i32 noundef 0)
  store ptr %47, ptr %8, align 8
  %48 = icmp eq ptr %47, null
  br i1 %48, label %49, label %63

49:                                               ; preds = %40
  %50 = load ptr, ptr %10, align 8
  %51 = load ptr, ptr %12, align 8
  %52 = call i32 (ptr, ptr, ...) @fprintf(ptr noundef %50, ptr noundef @.str.15, ptr noundef %51) #6
  %53 = load ptr, ptr %12, align 8
  %54 = call ptr @Extra_FileGetSimilarName(ptr noundef %53, ptr noundef @.str.58, ptr noundef null, ptr noundef null, ptr noundef null, ptr noundef null)
  store ptr %54, ptr %12, align 8
  %55 = icmp ne ptr %54, null
  br i1 %55, label %56, label %60

56:                                               ; preds = %49
  %57 = load ptr, ptr %10, align 8
  %58 = load ptr, ptr %12, align 8
  %59 = call i32 (ptr, ptr, ...) @fprintf(ptr noundef %57, ptr noundef @.str.20, ptr noundef %58) #6
  br label %60

60:                                               ; preds = %56, %49
  %61 = load ptr, ptr %10, align 8
  %62 = call i32 (ptr, ptr, ...) @fprintf(ptr noundef %61, ptr noundef @.str.21) #6
  store i32 1, ptr %4, align 4
  br label %77

63:                                               ; preds = %40
  %64 = load ptr, ptr %8, align 8
  %65 = load ptr, ptr %11, align 8
  call void @Mio_LibraryReadProfile(ptr noundef %64, ptr noundef %65)
  %66 = load ptr, ptr %8, align 8
  %67 = call i32 @fclose(ptr noundef %66)
  store i32 0, ptr %4, align 4
  br label %77

68:                                               ; preds = %32, %26, %25
  %69 = load ptr, ptr %10, align 8
  %70 = call i32 (ptr, ptr, ...) @fprintf(ptr noundef %69, ptr noundef @.str.59) #6
  %71 = load ptr, ptr %10, align 8
  %72 = call i32 (ptr, ptr, ...) @fprintf(ptr noundef %71, ptr noundef @.str.60) #6
  %73 = load ptr, ptr %10, align 8
  %74 = call i32 (ptr, ptr, ...) @fprintf(ptr noundef %73, ptr noundef @.str.61) #6
  %75 = load ptr, ptr %10, align 8
  %76 = call i32 (ptr, ptr, ...) @fprintf(ptr noundef %75, ptr noundef @.str.62) #6
  store i32 1, ptr %4, align 4
  br label %77

77:                                               ; preds = %68, %63, %60, %37
  %78 = load i32, ptr %4, align 4
  ret i32 %78
}