; Function Attrs: nounwind uwtable
define internal range(i32 0, 2) i32 @Mio_CommandReadProfile(ptr noundef %0, i32 noundef %1, ptr noundef %2) #0 {
  %4 = tail call ptr @Abc_FrameReadOut(ptr noundef %0) #8
  %5 = tail call ptr @Abc_FrameReadErr(ptr noundef %0) #8
  tail call void (...) @Extra_UtilGetoptReset() #8
  %6 = tail call i32 @Extra_UtilGetopt(i32 noundef %1, ptr noundef %2, ptr noundef nonnull @.str.56) #8
  %.not = icmp eq i32 %6, -1
  br i1 %.not, label %7, label %30

7:                                                ; preds = %3
  %8 = load i32, ptr @globalUtilOptind, align 4
  %9 = add nsw i32 %8, 1
  %.not25 = icmp eq i32 %1, %9
  br i1 %.not25, label %10, label %30

10:                                               ; preds = %7
  %11 = tail call ptr (...) @Abc_FrameReadLibGen() #8
  %12 = icmp eq ptr %11, null
  br i1 %12, label %13, label %15

13:                                               ; preds = %10
  %14 = tail call i64 @fwrite(ptr nonnull @.str.57, i64 36, i64 1, ptr %5)
  br label %35

15:                                               ; preds = %10
  %16 = load i32, ptr @globalUtilOptind, align 4
  %17 = sext i32 %16 to i64
  %18 = getelementptr inbounds ptr, ptr %2, i64 %17
  %19 = load ptr, ptr %18, align 8
  %20 = tail call ptr @Io_FileOpen(ptr noundef %19, ptr noundef nonnull @.str.13, ptr noundef nonnull @.str.14, i32 noundef 0) #8
  %21 = icmp eq ptr %20, null
  br i1 %21, label %22, label %28

22:                                               ; preds = %15
  %23 = tail call i32 (ptr, ptr, ...) @fprintf(ptr noundef %5, ptr noundef nonnull @.str.15, ptr noundef %19) #8
  %24 = tail call ptr @Extra_FileGetSimilarName(ptr noundef %19, ptr noundef nonnull @.str.58, ptr noundef null, ptr noundef null, ptr noundef null, ptr noundef null) #8
  %.not26 = icmp eq ptr %24, null
  br i1 %.not26, label %27, label %25

25:                                               ; preds = %22
  %26 = tail call i32 (ptr, ptr, ...) @fprintf(ptr noundef %5, ptr noundef nonnull @.str.20, ptr noundef nonnull %24) #8
  br label %27

27:                                               ; preds = %25, %22
  %fputc = tail call i32 @fputc(i32 10, ptr %5)
  br label %35

28:                                               ; preds = %15
  tail call void @Mio_LibraryReadProfile(ptr noundef nonnull %20, ptr noundef nonnull %11) #8
  %29 = tail call i32 @fclose(ptr noundef nonnull %20)
  br label %35

30:                                               ; preds = %7, %3
  %31 = tail call i64 @fwrite(ptr nonnull @.str.59, i64 32, i64 1, ptr %5)
  %32 = tail call i64 @fwrite(ptr nonnull @.str.60, i64 51, i64 1, ptr %5)
  %33 = tail call i64 @fwrite(ptr nonnull @.str.61, i64 33, i64 1, ptr %5)
  %34 = tail call i64 @fwrite(ptr nonnull @.str.62, i64 41, i64 1, ptr %5)
  br label %35

35:                                               ; preds = %30, %28, %27, %13
  %.0 = phi i32 [ 1, %30 ], [ 1, %13 ], [ 1, %27 ], [ 0, %28 ]
  ret i32 %.0
}